target datalayout = "e-m:e-p270:32:32-p271:32:32-p272:64:64-i64:64-i128:128-f80:128-n8:16:32:64-S128"
target triple = "x86_64-pc-linux-gnu"

%struct.crypto_hash_sha256_state = type { [8 x i32], i64, [64 x i8] }

@PAD = internal constant <{ i8, [63 x i8] }> <{ i8 -128, [63 x i8] zeroinitializer }>, align 16

; Function Attrs: inlinehint nounwind ssp uwtable
define internal void @store32_be(ptr noundef %0, i32 noundef %1) #6 {
  %3 = alloca ptr, align 8
  %4 = alloca i32, align 4
  store ptr %0, ptr %3, align 8
  store i32 %1, ptr %4, align 4
  %5 = load i32, ptr %4, align 4
  %6 = trunc i32 %5 to i8
  %7 = load ptr, ptr %3, align 8
  %8 = getelementptr i8, ptr %7, i64 3
  store i8 %6, ptr %8, align 1
  %9 = load i32, ptr %4, align 4
  %10 = lshr i32 %9, 8
  store i32 %10, ptr %4, align 4
  %11 = load i32, ptr %4, align 4
  %12 = trunc i32 %11 to i8
  %13 = load ptr, ptr %3, align 8
  %14 = getelementptr i8, ptr %13, i64 2
  store i8 %12, ptr %14, align 1
  %15 = load i32, ptr %4, align 4
  %16 = lshr i32 %15, 8
  store i32 %16, ptr %4, align 4
  %17 = load i32, ptr %4, align 4
  %18 = trunc i32 %17 to i8
  %19 = load ptr, ptr %3, align 8
  %20 = getelementptr i8, ptr %19, i64 1
  store i8 %18, ptr %20, align 1
  %21 = load i32, ptr %4, align 4
  %22 = lshr i32 %21, 8
  store i32 %22, ptr %4, align 4
  %23 = load i32, ptr %4, align 4
  %24 = trunc i32 %23 to i8
  %25 = load ptr, ptr %3, align 8
  %26 = getelementptr i8, ptr %25, i64 0
  store i8 %24, ptr %26, align 1
  ret void
}

; Function Attrs: inlinehint nounwind ssp uwtable
define internal void @store64_be(ptr noundef %0, i64 noundef %1) #6 {
  %3 = alloca ptr, align 8
  %4 = alloca i64, align 8
  store ptr %0, ptr %3, align 8
  store i64 %1, ptr %4, align 8
  %5 = load i64, ptr %4, align 8
  %6 = trunc i64 %5 to i8
  %7 = load ptr, ptr %3, align 8
  %8 = getelementptr i8, ptr %7, i64 7
  store i8 %6, ptr %8, align 1
  %9 = load i64, ptr %4, align 8
  %10 = lshr i64 %9, 8
  store i64 %10, ptr %4, align 8
  %11 = load i64, ptr %4, align 8
  %12 = trunc i64 %11 to i8
  %13 = load ptr, ptr %3, align 8
  %14 = getelementptr i8, ptr %13, i64 6
  store i8 %12, ptr %14, align 1
  %15 = load i64, ptr %4, align 8
  %16 = lshr i64 %15, 8
  store i64 %16, ptr %4, align 8
  %17 = load i64, ptr %4, align 8
  %18 = trunc i64 %17 to i8
  %19 = load ptr, ptr %3, align 8
  %20 = getelementptr i8, ptr %19, i64 5
  store i8 %18, ptr %20, align 1
  %21 = load i64, ptr %4, align 8
  %22 = lshr i64 %21, 8
  store i64 %22, ptr %4, align 8
  %23 = load i64, ptr %4, align 8
  %24 = trunc i64 %23 to i8
  %25 = load ptr, ptr %3, align 8
  %26 = getelementptr i8, ptr %25, i64 4
  store i8 %24, ptr %26, align 1
  %27 = load i64, ptr %4, align 8
  %28 = lshr i64 %27, 8
  store i64 %28, ptr %4, align 8
  %29 = load i64, ptr %4, align 8
  %30 = trunc i64 %29 to i8
  %31 = load ptr, ptr %3, align 8
  %32 = getelementptr i8, ptr %31, i64 3
  store i8 %30, ptr %32, align 1
  %33 = load i64, ptr %4, align 8
  %34 = lshr i64 %33, 8
  store i64 %34, ptr %4, align 8
  %35 = load i64, ptr %4, align 8
  %36 = trunc i64 %35 to i8
  %37 = load ptr, ptr %3, align 8
  %38 = getelementptr i8, ptr %37, i64 2
  store i8 %36, ptr %38, align 1
  %39 = load i64, ptr %4, align 8
  %40 = lshr i64 %39, 8
  store i64 %40, ptr %4, align 8
  %41 = load i64, ptr %4, align 8
  %42 = trunc i64 %41 to i8
  %43 = load ptr, ptr %3, align 8
  %44 = getelementptr i8, ptr %43, i64 1
  store i8 %42, ptr %44, align 1
  %45 = load i64, ptr %4, align 8
  %46 = lshr i64 %45, 8
  store i64 %46, ptr %4, align 8
  %47 = load i64, ptr %4, align 8
  %48 = trunc i64 %47 to i8
  %49 = load ptr, ptr %3, align 8
  %50 = getelementptr i8, ptr %49, i64 0
  store i8 %48, ptr %50, align 1
  ret void
}

; Function Attrs: alwaysinline nounwind
define internal ptr @memset.inline(ptr nonnull %0, i32 %1, i64 %2) #1 {
  %4 = alloca ptr, align 8
  %5 = alloca i32, align 4
  %6 = alloca i64, align 8
  store ptr %0, ptr %4, align 8
  store i32 %1, ptr %5, align 4
  store i64 %2, ptr %6, align 8
  %7 = load ptr, ptr %4, align 8
  %8 = load i32, ptr %5, align 4
  %9 = load i64, ptr %6, align 8
  %10 = load ptr, ptr %4, align 8
  %11 = call i64 @llvm.objectsize.i64.p0(ptr %10, i1 false, i1 true, i1 true)
  %12 = call ptr @__memset_chk(ptr noundef %7, i32 noundef %8, i64 noundef %9, i64 noundef %11) #7
  ret ptr %12
}

; Function Attrs: nounwind ssp uwtable
define internal void @be32enc_vect(ptr noundef %0, ptr noundef %1, i64 noundef %2) #0 {
  %4 = alloca ptr, align 8
  %5 = alloca ptr, align 8
  %6 = alloca i64, align 8
  %7 = alloca i64, align 8
  store ptr %0, ptr %4, align 8
  store ptr %1, ptr %5, align 8
  store i64 %2, ptr %6, align 8
  call void @llvm.lifetime.start.p0(i64 8, ptr %7) #7
  store i64 0, ptr %7, align 8
  br label %8

8:                                                ; preds = %22, %3
  %9 = load i64, ptr %7, align 8
  %10 = load i64, ptr %6, align 8
  %11 = udiv i64 %10, 4
  %12 = icmp ult i64 %9, %11
  br i1 %12, label %13, label %25

13:                                               ; preds = %8
  %14 = load ptr, ptr %4, align 8
  %15 = load i64, ptr %7, align 8
  %16 = mul i64 %15, 4
  %17 = getelementptr i8, ptr %14, i64 %16
  %18 = load ptr, ptr %5, align 8
  %19 = load i64, ptr %7, align 8
  %20 = getelementptr i32, ptr %18, i64 %19
  %21 = load i32, ptr %20, align 4
  call void @store32_be(ptr noundef %17, i32 noundef %21)
  br label %22

22:                                               ; preds = %13
  %23 = load i64, ptr %7, align 8
  %24 = add i64 %23, 1
  store i64 %24, ptr %7, align 8
  br label %8, !llvm.loop !13

25:                                               ; preds = %8
  call void @llvm.lifetime.end.p0(i64 8, ptr %7) #7
  ret void
}

; Function Attrs: nounwind ssp uwtable
define internal void @SHA256_Pad(ptr noundef %0, ptr noundef %1) #0 {
  %3 = alloca ptr, align 8
  %4 = alloca ptr, align 8
  %5 = alloca i32, align 4
  %6 = alloca i32, align 4
  store ptr %0, ptr %3, align 8
  store ptr %1, ptr %4, align 8
  call void @llvm.lifetime.start.p0(i64 4, ptr %5) #7
  call void @llvm.lifetime.start.p0(i64 4, ptr %6) #7
  fence acquire
  %7 = load ptr, ptr %3, align 8
  %8 = getelementptr inbounds nuw %struct.crypto_hash_sha256_state, ptr %7, i32 0, i32 1
  %9 = load i64, ptr %8, align 8
  %10 = lshr i64 %9, 3
  %11 = and i64 %10, 63
  %12 = trunc i64 %11 to i32
  store i32 %12, ptr %5, align 4
  %13 = load i32, ptr %5, align 4
  %14 = icmp ult i32 %13, 56
  br i1 %14, label %15, label %37

15:                                               ; preds = %2
  store i32 0, ptr %6, align 4
  br label %16

16:                                               ; preds = %33, %15
  %17 = load i32, ptr %6, align 4
  %18 = load i32, ptr %5, align 4
  %19 = sub i32 56, %18
  %20 = icmp ult i32 %17, %19
  br i1 %20, label %21, label %36

21:                                               ; preds = %16
  %22 = load i32, ptr %6, align 4
  %23 = zext i32 %22 to i64
  %24 = getelementptr [64 x i8], ptr @PAD, i64 0, i64 %23
  %25 = load i8, ptr %24, align 1
  %26 = load ptr, ptr %3, align 8
  %27 = getelementptr inbounds nuw %struct.crypto_hash_sha256_state, ptr %26, i32 0, i32 2
  %28 = load i32, ptr %5, align 4
  %29 = load i32, ptr %6, align 4
  %30 = add i32 %28, %29
  %31 = zext i32 %30 to i64
  %32 = getelementptr [64 x i8], ptr %27, i64 0, i64 %31
  store i8 %25, ptr %32, align 1
  br label %33

33:                                               ; preds = %21
  %34 = load i32, ptr %6, align 4
  %35 = add i32 %34, 1
  store i32 %35, ptr %6, align 4
  br label %16, !llvm.loop !11

36:                                               ; preds = %16
  br label %73

37:                                               ; preds = %2
  store i32 0, ptr %6, align 4
  br label %38

38:                                               ; preds = %55, %37
  %39 = load i32, ptr %6, align 4
  %40 = load i32, ptr %5, align 4
  %41 = sub i32 64, %40
  %42 = icmp ult i32 %39, %41
  br i1 %42, label %43, label %58

43:                                               ; preds = %38
  %44 = load i32, ptr %6, align 4
  %45 = zext i32 %44 to i64
  %46 = getelementptr [64 x i8], ptr @PAD, i64 0, i64 %45
  %47 = load i8, ptr %46, align 1
  %48 = load ptr, ptr %3, align 8
  %49 = getelementptr inbounds nuw %struct.crypto_hash_sha256_state, ptr %48, i32 0, i32 2
  %50 = load i32, ptr %5, align 4
  %51 = load i32, ptr %6, align 4
  %52 = add i32 %50, %51
  %53 = zext i32 %52 to i64
  %54 = getelementptr [64 x i8], ptr %49, i64 0, i64 %53
  store i8 %47, ptr %54, align 1
  br label %55

55:                                               ; preds = %43
  %56 = load i32, ptr %6, align 4
  %57 = add i32 %56, 1
  store i32 %57, ptr %6, align 4
  br label %38, !llvm.loop !12

58:                                               ; preds = %38
  %59 = load ptr, ptr %3, align 8
  %60 = getelementptr inbounds nuw %struct.crypto_hash_sha256_state, ptr %59, i32 0, i32 0
  %61 = getelementptr inbounds [8 x i32], ptr %60, i64 0, i64 0
  %62 = load ptr, ptr %3, align 8
  %63 = getelementptr inbounds nuw %struct.crypto_hash_sha256_state, ptr %62, i32 0, i32 2
  %64 = getelementptr inbounds [64 x i8], ptr %63, i64 0, i64 0
  %65 = load ptr, ptr %4, align 8
  %66 = getelementptr i32, ptr %65, i64 0
  %67 = load ptr, ptr %4, align 8
  %68 = getelementptr i32, ptr %67, i64 64
  call void @SHA256_Transform(ptr noundef %61, ptr noundef %64, ptr noundef %66, ptr noundef %68)
  %69 = load ptr, ptr %3, align 8
  %70 = getelementptr inbounds nuw %struct.crypto_hash_sha256_state, ptr %69, i32 0, i32 2
  %71 = getelementptr [64 x i8], ptr %70, i64 0, i64 0
  %72 = call ptr @memset.inline(ptr noundef %71, i32 noundef 0, i64 noundef 56) #7
  br label %73

73:                                               ; preds = %58, %36
  %74 = load ptr, ptr %3, align 8
  %75 = getelementptr inbounds nuw %struct.crypto_hash_sha256_state, ptr %74, i32 0, i32 2
  %76 = getelementptr [64 x i8], ptr %75, i64 0, i64 56
  %77 = load ptr, ptr %3, align 8
  %78 = getelementptr inbounds nuw %struct.crypto_hash_sha256_state, ptr %77, i32 0, i32 1
  %79 = load i64, ptr %78, align 8
  call void @store64_be(ptr noundef %76, i64 noundef %79)
  %80 = load ptr, ptr %3, align 8
  %81 = getelementptr inbounds nuw %struct.crypto_hash_sha256_state, ptr %80, i32 0, i32 0
  %82 = getelementptr inbounds [8 x i32], ptr %81, i64 0, i64 0
  %83 = load ptr, ptr %3, align 8
  %84 = getelementptr inbounds nuw %struct.crypto_hash_sha256_state, ptr %83, i32 0, i32 2
  %85 = getelementptr inbounds [64 x i8], ptr %84, i64 0, i64 0
  %86 = load ptr, ptr %4, align 8
  %87 = getelementptr i32, ptr %86, i64 0
  %88 = load ptr, ptr %4, align 8
  %89 = getelementptr i32, ptr %88, i64 64
  call void @SHA256_Transform(ptr noundef %82, ptr noundef %85, ptr noundef %87, ptr noundef %89)
  call void @llvm.lifetime.end.p0(i64 4, ptr %6) #7
  call void @llvm.lifetime.end.p0(i64 4, ptr %5) #7
  ret void
}

; Function Attrs: nounwind ssp uwtable
define dso_local i32 @crypto_hash_sha256_final(ptr noundef nonnull %0, ptr noundef nonnull %1) #0 {
  %3 = alloca ptr, align 8
  %4 = alloca ptr, align 8
  %5 = alloca [72 x i32], align 16
  store ptr %0, ptr %3, align 8
  store ptr %1, ptr %4, align 8
  call void @llvm.lifetime.start.p0(i64 288, ptr %5) #7
  %6 = load ptr, ptr %3, align 8
  %7 = getelementptr inbounds [72 x i32], ptr %5, i64 0, i64 0
  call void @SHA256_Pad(ptr noundef %6, ptr noundef %7)
  %8 = load ptr, ptr %4, align 8
  %9 = load ptr, ptr %3, align 8
  %10 = getelementptr inbounds nuw %struct.crypto_hash_sha256_state, ptr %9, i32 0, i32 0
  %11 = getelementptr inbounds [8 x i32], ptr %10, i64 0, i64 0
  call void @be32enc_vect(ptr noundef %8, ptr noundef %11, i64 noundef 32)
  %12 = getelementptr inbounds [72 x i32], ptr %5, i64 0, i64 0
  call void @sodium_memzero(ptr noundef %12, i64 noundef 288)
  %13 = load ptr, ptr %3, align 8
  call void @sodium_memzero(ptr noundef %13, i64 noundef 104)
  call void @llvm.lifetime.end.p0(i64 288, ptr %5) #7
  ret i32 0
}