; Function Attrs: nounwind ssp uwtable
define dso_local noundef i32 @crypto_hash_sha256_final(ptr noundef nonnull %0, ptr noundef nonnull writeonly captures(none) %1) local_unnamed_addr #1 {
  %3 = alloca [72 x i32], align 16
  call void @llvm.lifetime.start.p0(i64 288, ptr nonnull %3) #7
  fence acquire
  %4 = getelementptr inbounds nuw i8, ptr %0, i64 32
  %5 = load i64, ptr %4, align 8
  %6 = trunc i64 %5 to i32
  %7 = lshr i32 %6, 3
  %8 = and i32 %7, 63
  %9 = icmp samesign ult i32 %8, 56
  br i1 %9, label %.lr.ph.i, label %.preheader28.i

.preheader28.i:                                   ; preds = %2
  %10 = sub nuw nsw i32 64, %8
  %11 = zext nneg i32 %8 to i64
  %12 = getelementptr i8, ptr %0, i64 %11
  %scevgep.i = getelementptr i8, ptr %12, i64 40
  %13 = zext nneg i32 %10 to i64
  tail call void @llvm.memcpy.p0.p0.i64(ptr noundef nonnull align 1 dereferenceable(1) %scevgep.i, ptr noundef nonnull align 16 dereferenceable(1) @PAD, i64 %13, i1 false)
  %14 = getelementptr inbounds nuw i8, ptr %0, i64 40
  %15 = getelementptr inbounds nuw i8, ptr %3, i64 256
  call fastcc void @SHA256_Transform(ptr noundef nonnull %0, ptr noundef nonnull %14, ptr noundef nonnull %3, ptr noundef nonnull %15)
  call void @llvm.memset.p0.i64(ptr noundef nonnull align 1 dereferenceable(56) %14, i8 noundef 0, i64 noundef 56, i1 noundef false) #7
  br label %SHA256_Pad.exit

.lr.ph.i:                                         ; preds = %2
  %16 = zext nneg i32 %8 to i64
  %17 = getelementptr i8, ptr %0, i64 %16
  %scevgep32.i = getelementptr i8, ptr %17, i64 40
  %narrow.i = sub nuw nsw i32 56, %8
  %18 = zext nneg i32 %narrow.i to i64
  tail call void @llvm.memcpy.p0.p0.i64(ptr noundef nonnull align 1 dereferenceable(1) %scevgep32.i, ptr noundef nonnull align 16 dereferenceable(1) @PAD, i64 %18, i1 false)
  br label %SHA256_Pad.exit

SHA256_Pad.exit:                                  ; preds = %.preheader28.i, %.lr.ph.i
  %19 = getelementptr inbounds nuw i8, ptr %0, i64 40
  %20 = getelementptr i8, ptr %0, i64 96
  %21 = load i64, ptr %4, align 8
  %22 = trunc i64 %21 to i8
  %23 = getelementptr i8, ptr %0, i64 103
  store i8 %22, ptr %23, align 1
  %24 = lshr i64 %21, 8
  %25 = trunc i64 %24 to i8
  %26 = getelementptr i8, ptr %0, i64 102
  store i8 %25, ptr %26, align 1
  %27 = lshr i64 %21, 16
  %28 = trunc i64 %27 to i8
  %29 = getelementptr i8, ptr %0, i64 101
  store i8 %28, ptr %29, align 1
  %30 = lshr i64 %21, 24
  %31 = trunc i64 %30 to i8
  %32 = getelementptr i8, ptr %0, i64 100
  store i8 %31, ptr %32, align 1
  %33 = lshr i64 %21, 32
  %34 = trunc i64 %33 to i8
  %35 = getelementptr i8, ptr %0, i64 99
  store i8 %34, ptr %35, align 1
  %36 = lshr i64 %21, 40
  %37 = trunc i64 %36 to i8
  %38 = getelementptr i8, ptr %0, i64 98
  store i8 %37, ptr %38, align 1
  %39 = lshr i64 %21, 48
  %40 = trunc i64 %39 to i8
  %41 = getelementptr i8, ptr %0, i64 97
  store i8 %40, ptr %41, align 1
  %42 = lshr i64 %21, 56
  %43 = trunc nuw i64 %42 to i8
  store i8 %43, ptr %20, align 1
  %44 = getelementptr inbounds nuw i8, ptr %3, i64 256
  call fastcc void @SHA256_Transform(ptr noundef nonnull %0, ptr noundef nonnull %19, ptr noundef nonnull %3, ptr noundef nonnull %44)
  br label %45

45:                                               ; preds = %45, %SHA256_Pad.exit
  %.06.i = phi i64 [ 0, %SHA256_Pad.exit ], [ %60, %45 ]
  %46 = shl nuw nsw i64 %.06.i, 2
  %47 = getelementptr i8, ptr %1, i64 %46
  %48 = getelementptr i32, ptr %0, i64 %.06.i
  %49 = load i32, ptr %48, align 4
  %50 = trunc i32 %49 to i8
  %51 = getelementptr i8, ptr %47, i64 3
  store i8 %50, ptr %51, align 1
  %52 = lshr i32 %49, 8
  %53 = trunc i32 %52 to i8
  %54 = getelementptr i8, ptr %47, i64 2
  store i8 %53, ptr %54, align 1
  %55 = lshr i32 %49, 16
  %56 = trunc i32 %55 to i8
  %57 = getelementptr i8, ptr %47, i64 1
  store i8 %56, ptr %57, align 1
  %58 = lshr i32 %49, 24
  %59 = trunc nuw i32 %58 to i8
  store i8 %59, ptr %47, align 1
  %60 = add nuw nsw i64 %.06.i, 1
  %exitcond.not.i = icmp eq i64 %60, 8
  br i1 %exitcond.not.i, label %be32enc_vect.exit, label %45, !llvm.loop !11

be32enc_vect.exit:                                ; preds = %45
  call void @sodium_memzero(ptr noundef nonnull %3, i64 noundef 288) #7
  call void @sodium_memzero(ptr noundef nonnull %0, i64 noundef 104) #7
  call void @llvm.lifetime.end.p0(i64 288, ptr nonnull %3) #7
  ret i32 0
}